target datalayout = "e-m:e-p270:32:32-p271:32:32-p272:64:64-i64:64-i128:128-f80:128-n8:16:32:64-S128"
target triple = "x86_64-pc-linux-gnu"

%struct.lua_State = type { %struct.GCRef, i8, i8, i8, i8, %struct.MRef, %struct.GCRef, ptr, ptr, %struct.MRef, %struct.MRef, %struct.GCRef, %struct.GCRef, ptr, i32 }
%struct.MRef = type { i64 }
%struct.GCRef = type { i64 }
%union.TValue = type { i64 }
%struct.GCfuncC = type { %struct.GCRef, i8, i8, i8, i8, %struct.GCRef, %struct.GCRef, %struct.MRef, ptr, [1 x %union.TValue] }

; Function Attrs: nounwind uwtable
define internal i32 @lj_cf_ffi_load(ptr noundef %0) #0 {
  %2 = alloca ptr, align 8
  %3 = alloca ptr, align 8
  %4 = alloca i32, align 4
  store ptr %0, ptr %2, align 8, !tbaa !4
  call void @llvm.lifetime.start.p0(i64 8, ptr %3) #10
  %5 = load ptr, ptr %2, align 8, !tbaa !4
  %6 = call ptr @lj_lib_checkstr(ptr noundef %5, i32 noundef 1)
  store ptr %6, ptr %3, align 8, !tbaa !69
  call void @llvm.lifetime.start.p0(i64 4, ptr %4) #10
  %7 = load ptr, ptr %2, align 8, !tbaa !4
  %8 = getelementptr inbounds nuw %struct.lua_State, ptr %7, i32 0, i32 7
  %9 = load ptr, ptr %8, align 8, !tbaa !37
  %10 = getelementptr inbounds %union.TValue, ptr %9, i64 1
  %11 = load ptr, ptr %2, align 8, !tbaa !4
  %12 = getelementptr inbounds nuw %struct.lua_State, ptr %11, i32 0, i32 8
  %13 = load ptr, ptr %12, align 8, !tbaa !11
  %14 = icmp ult ptr %10, %13
  br i1 %14, label %15, label %24

15:                                               ; preds = %1
  %16 = load ptr, ptr %2, align 8, !tbaa !4
  %17 = getelementptr inbounds nuw %struct.lua_State, ptr %16, i32 0, i32 7
  %18 = load ptr, ptr %17, align 8, !tbaa !37
  %19 = getelementptr inbounds %union.TValue, ptr %18, i64 1
  %20 = load i64, ptr %19, align 8, !tbaa !26
  %21 = ashr i64 %20, 47
  %22 = trunc i64 %21 to i32
  %23 = icmp ult i32 %22, -2
  br label %24

24:                                               ; preds = %15, %1
  %25 = phi i1 [ false, %1 ], [ %23, %15 ]
  %26 = zext i1 %25 to i32
  store i32 %26, ptr %4, align 4, !tbaa !34
  %27 = load ptr, ptr %2, align 8, !tbaa !4
  %28 = load ptr, ptr %2, align 8, !tbaa !4
  %29 = getelementptr inbounds nuw %struct.lua_State, ptr %28, i32 0, i32 7
  %30 = load ptr, ptr %29, align 8, !tbaa !37
  %31 = getelementptr inbounds %union.TValue, ptr %30, i64 -2
  %32 = getelementptr inbounds nuw %struct.GCRef, ptr %31, i32 0, i32 0
  %33 = load i64, ptr %32, align 8, !tbaa !26
  %34 = and i64 %33, 140737488355327
  %35 = inttoptr i64 %34 to ptr
  %36 = getelementptr inbounds nuw %struct.GCfuncC, ptr %35, i32 0, i32 5
  %37 = getelementptr inbounds nuw %struct.GCRef, ptr %36, i32 0, i32 0
  %38 = load i64, ptr %37, align 8, !tbaa !26
  %39 = inttoptr i64 %38 to ptr
  %40 = load ptr, ptr %3, align 8, !tbaa !69
  %41 = load i32, ptr %4, align 4, !tbaa !34
  call void @lj_clib_load(ptr noundef %27, ptr noundef %39, ptr noundef %40, i32 noundef %41)
  call void @llvm.lifetime.end.p0(i64 4, ptr %4) #10
  call void @llvm.lifetime.end.p0(i64 8, ptr %3) #10
  ret i32 1
}