; Function Attrs: nounwind uwtable
define internal noundef i32 @lj_cf_ffi_load(ptr noundef %0) #0 {
  %2 = tail call ptr @lj_lib_checkstr(ptr noundef %0, i32 noundef 1) #9
  %3 = getelementptr inbounds nuw i8, ptr %0, i64 32
  %4 = load ptr, ptr %3, align 8, !tbaa !44
  %5 = getelementptr inbounds nuw i8, ptr %4, i64 8
  %6 = getelementptr inbounds nuw i8, ptr %0, i64 40
  %7 = load ptr, ptr %6, align 8, !tbaa !4
  %8 = icmp ult ptr %5, %7
  br i1 %8, label %9, label %13

9:                                                ; preds = %1
  %10 = load i64, ptr %5, align 8, !tbaa !23
  %11 = icmp ult i64 %10, -281474976710656
  %12 = zext i1 %11 to i32
  br label %13

13:                                               ; preds = %9, %1
  %14 = phi i32 [ 0, %1 ], [ %12, %9 ]
  %15 = getelementptr inbounds i8, ptr %4, i64 -16
  %16 = load i64, ptr %15, align 8, !tbaa !23
  %17 = and i64 %16, 140737488355327
  %18 = inttoptr i64 %17 to ptr
  %19 = getelementptr inbounds nuw i8, ptr %18, i64 16
  %20 = load i64, ptr %19, align 8, !tbaa !23
  %21 = inttoptr i64 %20 to ptr
  tail call void @lj_clib_load(ptr noundef nonnull %0, ptr noundef %21, ptr noundef %2, i32 noundef %14) #9
  ret i32 1
}